; Function Attrs: mustprogress nounwind uwtable
define dso_local void @_ZN5clang14TextNodeDumper16visitTextCommentEPKNS_8comments11TextCommentEPKNS1_11FullCommentE(ptr nocapture noundef nonnull readonly align 8 dereferenceable(1168) %0, ptr nocapture noundef readonly %1, ptr nocapture noundef readnone %2) local_unnamed_addr #0 align 2 {
  %4 = getelementptr inbounds nuw i8, ptr %0, i64 1096
  %5 = load ptr, ptr %4, align 8
  %6 = getelementptr inbounds nuw i8, ptr %5, i64 24
  %7 = load ptr, ptr %6, align 8
  %8 = getelementptr inbounds nuw i8, ptr %5, i64 32
  %9 = load ptr, ptr %8, align 8
  %10 = ptrtoint ptr %7 to i64
  %11 = ptrtoint ptr %9 to i64
  %12 = sub i64 %10, %11
  %13 = icmp ult i64 %12, 7
  br i1 %13, label %14, label %16

14:                                               ; preds = %3
  %15 = tail call noundef nonnull align 8 dereferenceable(48) ptr @_ZN4llvm11raw_ostream5writeEPKcm(ptr noundef nonnull align 8 dereferenceable(48) %5, ptr noundef nonnull @.str.542, i64 noundef 7) #18
  %.phi.trans.insert = getelementptr inbounds nuw i8, ptr %15, i64 32
  %.pre = load ptr, ptr %.phi.trans.insert, align 8
  br label %_ZN4llvm11raw_ostreamlsEPKc.exit

16:                                               ; preds = %3
  tail call void @llvm.memcpy.p0.p0.i64(ptr noundef nonnull align 1 dereferenceable(7) %9, ptr noundef nonnull align 1 dereferenceable(7) @.str.542, i64 7, i1 false)
  %17 = load ptr, ptr %8, align 8
  %18 = getelementptr inbounds i8, ptr %17, i64 7
  store ptr %18, ptr %8, align 8
  br label %_ZN4llvm11raw_ostreamlsEPKc.exit

_ZN4llvm11raw_ostreamlsEPKc.exit:                 ; preds = %14, %16
  %19 = phi ptr [ %.pre, %14 ], [ %18, %16 ]
  %.0.i.i = phi ptr [ %15, %14 ], [ %5, %16 ]
  %20 = getelementptr inbounds nuw i8, ptr %1, i64 16
  %.sroa.0.0.copyload.i = load ptr, ptr %20, align 8
  %.sroa.2.0..sroa_idx.i = getelementptr inbounds i8, ptr %1, i64 24
  %.sroa.2.0.copyload.i = load i64, ptr %.sroa.2.0..sroa_idx.i, align 8
  %21 = getelementptr inbounds nuw i8, ptr %.0.i.i, i64 24
  %22 = load ptr, ptr %21, align 8
  %23 = getelementptr inbounds nuw i8, ptr %.0.i.i, i64 32
  %24 = ptrtoint ptr %22 to i64
  %25 = ptrtoint ptr %19 to i64
  %26 = sub i64 %24, %25
  %27 = icmp ugt i64 %.sroa.2.0.copyload.i, %26
  br i1 %27, label %28, label %30

28:                                               ; preds = %_ZN4llvm11raw_ostreamlsEPKc.exit
  %29 = tail call noundef nonnull align 8 dereferenceable(48) ptr @_ZN4llvm11raw_ostream5writeEPKcm(ptr noundef nonnull align 8 dereferenceable(48) %.0.i.i, ptr noundef %.sroa.0.0.copyload.i, i64 noundef %.sroa.2.0.copyload.i) #18
  %.phi.trans.insert5 = getelementptr inbounds nuw i8, ptr %29, i64 32
  %.pre6 = load ptr, ptr %.phi.trans.insert5, align 8
  br label %_ZN4llvm11raw_ostreamlsENS_9StringRefE.exit

30:                                               ; preds = %_ZN4llvm11raw_ostreamlsEPKc.exit
  %.not.i = icmp eq i64 %.sroa.2.0.copyload.i, 0
  br i1 %.not.i, label %_ZN4llvm11raw_ostreamlsENS_9StringRefE.exit, label %31

31:                                               ; preds = %30
  tail call void @llvm.memcpy.p0.p0.i64(ptr align 1 %19, ptr align 1 %.sroa.0.0.copyload.i, i64 %.sroa.2.0.copyload.i, i1 false)
  %32 = load ptr, ptr %23, align 8
  %33 = getelementptr inbounds i8, ptr %32, i64 %.sroa.2.0.copyload.i
  store ptr %33, ptr %23, align 8
  br label %_ZN4llvm11raw_ostreamlsENS_9StringRefE.exit

_ZN4llvm11raw_ostreamlsENS_9StringRefE.exit:      ; preds = %28, %30, %31
  %34 = phi ptr [ %.pre6, %28 ], [ %33, %31 ], [ %19, %30 ]
  %.0.i = phi ptr [ %29, %28 ], [ %.0.i.i, %31 ], [ %.0.i.i, %30 ]
  %35 = getelementptr inbounds nuw i8, ptr %.0.i, i64 24
  %36 = load ptr, ptr %35, align 8
  %37 = icmp eq ptr %36, %34
  br i1 %37, label %38, label %40

38:                                               ; preds = %_ZN4llvm11raw_ostreamlsENS_9StringRefE.exit
  %39 = tail call noundef nonnull align 8 dereferenceable(48) ptr @_ZN4llvm11raw_ostream5writeEPKcm(ptr noundef nonnull align 8 dereferenceable(48) %.0.i, ptr noundef nonnull @.str.543, i64 noundef 1) #18
  br label %_ZN4llvm11raw_ostreamlsEPKc.exit4

40:                                               ; preds = %_ZN4llvm11raw_ostreamlsENS_9StringRefE.exit
  %41 = getelementptr inbounds nuw i8, ptr %.0.i, i64 32
  store i8 34, ptr %34, align 1
  %42 = load ptr, ptr %41, align 8
  %43 = getelementptr inbounds i8, ptr %42, i64 1
  store ptr %43, ptr %41, align 8
  br label %_ZN4llvm11raw_ostreamlsEPKc.exit4

_ZN4llvm11raw_ostreamlsEPKc.exit4:                ; preds = %38, %40
  ret void
}